target datalayout = "e-m:e-p270:32:32-p271:32:32-p272:64:64-i64:64-i128:128-f80:128-n8:16:32:64-S128"
target triple = "x86_64-pc-linux-gnu"

%struct.AVFilterContext = type { ptr, ptr, ptr, ptr, ptr, i32, ptr, ptr, i32, ptr, ptr, i32, i32, ptr, ptr, ptr, ptr, i32, ptr, i32, i32 }
%struct.GEQContext = type { ptr, [4 x [32 x ptr]], [7 x ptr], ptr, ptr, ptr, ptr, [8 x double], i32, i32, i32, i32, i32, i32, [4 x ptr], [4 x i32] }

@geq_query_formats.rgb_pix_fmts = internal constant [13 x i32] [i32 71, i32 111, i32 73, i32 75, i32 163, i32 135, i32 161, i32 137, i32 77, i32 113, i32 175, i32 177, i32 -1], align 16

; Function Attrs: nounwind uwtable
define internal i32 @geq_query_formats(ptr noundef %0, ptr noundef %1, ptr noundef %2) #1 {
  %4 = alloca ptr, align 8
  %5 = alloca ptr, align 8
  %6 = alloca ptr, align 8
  %7 = alloca ptr, align 8
  %8 = alloca ptr, align 8
  store ptr %0, ptr %4, align 8, !tbaa !4
  store ptr %1, ptr %5, align 8, !tbaa !43
  store ptr %2, ptr %6, align 8, !tbaa !43
  call void @llvm.lifetime.start.p0(i64 8, ptr %7) #11
  %9 = load ptr, ptr %4, align 8, !tbaa !4
  %10 = getelementptr inbounds nuw %struct.AVFilterContext, ptr %9, i32 0, i32 9
  %11 = load ptr, ptr %10, align 8, !tbaa !9
  store ptr %11, ptr %7, align 8, !tbaa !22
  call void @llvm.lifetime.start.p0(i64 8, ptr %8) #11
  %12 = load ptr, ptr %7, align 8, !tbaa !22
  %13 = getelementptr inbounds nuw %struct.GEQContext, ptr %12, i32 0, i32 12
  %14 = load i32, ptr %13, align 8, !tbaa !26
  %15 = icmp ne i32 %14, 0
  %16 = select i1 %15, ptr @geq_query_formats.rgb_pix_fmts, ptr @geq_query_formats.yuv_pix_fmts
  store ptr %16, ptr %8, align 8, !tbaa !34
  %17 = load ptr, ptr %4, align 8, !tbaa !4
  %18 = load ptr, ptr %5, align 8, !tbaa !43
  %19 = load ptr, ptr %6, align 8, !tbaa !43
  %20 = load ptr, ptr %8, align 8, !tbaa !34
  %21 = call i32 @ff_set_common_formats_from_list2(ptr noundef %17, ptr noundef %18, ptr noundef %19, ptr noundef %20)
  call void @llvm.lifetime.end.p0(i64 8, ptr %8) #11
  call void @llvm.lifetime.end.p0(i64 8, ptr %7) #11
  ret i32 %21
}